target datalayout = "e-m:e-p270:32:32-p271:32:32-p272:64:64-i64:64-i128:128-f80:128-n8:16:32:64-S128"
target triple = "x86_64-pc-linux-gnu"

%"struct.Luau::CodeGen::X64::RegisterX64" = type { i8 }
%"class.Luau::CodeGen::X64::AssemblyBuilderX64" = type <{ %"class.std::vector", %"class.std::vector", %"class.std::__cxx11::basic_string", i8, [3 x i8], i32, i32, [4 x i8], %"class.std::vector.3", %"class.std::vector.8", %"class.Luau::DenseHashMap", %"class.Luau::DenseHashMap.13", i8, [7 x i8], i64, ptr, ptr, i32, [4 x i8] }>
%"class.std::vector" = type { %"struct.std::_Vector_base" }
%"struct.std::_Vector_base" = type { %"struct.std::_Vector_base<unsigned char, std::allocator<unsigned char>>::_Vector_impl" }
%"struct.std::_Vector_base<unsigned char, std::allocator<unsigned char>>::_Vector_impl" = type { %"struct.std::_Vector_base<unsigned char, std::allocator<unsigned char>>::_Vector_impl_data" }
%"struct.std::_Vector_base<unsigned char, std::allocator<unsigned char>>::_Vector_impl_data" = type { ptr, ptr, ptr }
%"class.std::__cxx11::basic_string" = type { %"struct.std::__cxx11::basic_string<char>::_Alloc_hider", i64, %union.anon }
%"struct.std::__cxx11::basic_string<char>::_Alloc_hider" = type { ptr }
%union.anon = type { i64, [8 x i8] }
%"class.std::vector.3" = type { %"struct.std::_Vector_base.4" }
%"struct.std::_Vector_base.4" = type { %"struct.std::_Vector_base<Luau::CodeGen::Label, std::allocator<Luau::CodeGen::Label>>::_Vector_impl" }
%"struct.std::_Vector_base<Luau::CodeGen::Label, std::allocator<Luau::CodeGen::Label>>::_Vector_impl" = type { %"struct.std::_Vector_base<Luau::CodeGen::Label, std::allocator<Luau::CodeGen::Label>>::_Vector_impl_data" }
%"struct.std::_Vector_base<Luau::CodeGen::Label, std::allocator<Luau::CodeGen::Label>>::_Vector_impl_data" = type { ptr, ptr, ptr }
%"class.std::vector.8" = type { %"struct.std::_Vector_base.9" }
%"struct.std::_Vector_base.9" = type { %"struct.std::_Vector_base<unsigned int, std::allocator<unsigned int>>::_Vector_impl" }
%"struct.std::_Vector_base<unsigned int, std::allocator<unsigned int>>::_Vector_impl" = type { %"struct.std::_Vector_base<unsigned int, std::allocator<unsigned int>>::_Vector_impl_data" }
%"struct.std::_Vector_base<unsigned int, std::allocator<unsigned int>>::_Vector_impl_data" = type { ptr, ptr, ptr }
%"class.Luau::DenseHashMap" = type { %"class.Luau::detail::DenseHashTable" }
%"class.Luau::detail::DenseHashTable" = type <{ ptr, i64, i64, i32, [4 x i8] }>
%"class.Luau::DenseHashMap.13" = type { %"class.Luau::detail::DenseHashTable.14" }
%"class.Luau::detail::DenseHashTable.14" = type <{ ptr, i64, i64, i64, [8 x i8] }>
%"struct.Luau::CodeGen::X64::OperandX64" = type { i8, %"struct.Luau::CodeGen::X64::RegisterX64", %"struct.Luau::CodeGen::X64::RegisterX64", i8, i32 }

@.str.4 = private unnamed_addr constant [3 x i8] c"or\00", align 1

; Function Attrs: mustprogress uwtable
define dso_local void @_ZN4Luau7CodeGen3X6418AssemblyBuilderX6423placeBinaryRegMemAndRegENS1_10OperandX64ES3_hh(ptr noundef nonnull align 8 dereferenceable(252) %0, i64 %1, i64 %2, i8 noundef zeroext %3, i8 noundef zeroext %4) #0 align 2 {
  %6 = alloca %"struct.Luau::CodeGen::X64::OperandX64", align 4
  %7 = alloca %"struct.Luau::CodeGen::X64::OperandX64", align 4
  %8 = alloca ptr, align 8
  %9 = alloca i8, align 1
  %10 = alloca i8, align 1
  %11 = alloca %"struct.Luau::CodeGen::X64::OperandX64", align 4
  %12 = alloca %"struct.Luau::CodeGen::X64::OperandX64", align 4
  store i64 %1, ptr %6, align 4
  store i64 %2, ptr %7, align 4
  store ptr %0, ptr %8, align 8, !tbaa !4
  store i8 %3, ptr %9, align 1, !tbaa !79
  store i8 %4, ptr %10, align 1, !tbaa !79
  %13 = load ptr, ptr %8, align 8
  call void @llvm.memcpy.p0.p0.i64(ptr align 4 %11, ptr align 4 %7, i64 8, i1 false), !tbaa.struct !76
  call void @llvm.memcpy.p0.p0.i64(ptr align 4 %12, ptr align 4 %6, i64 8, i1 false), !tbaa.struct !76
  %14 = load i8, ptr %9, align 1, !tbaa !79
  %15 = load i8, ptr %10, align 1, !tbaa !79
  %16 = load i64, ptr %11, align 4
  %17 = load i64, ptr %12, align 4
  call void @_ZN4Luau7CodeGen3X6418AssemblyBuilderX6423placeBinaryRegAndRegMemENS1_10OperandX64ES3_hh(ptr noundef nonnull align 8 dereferenceable(252) %13, i64 %16, i64 %17, i8 noundef zeroext %14, i8 noundef zeroext %15)
  ret void
}

; Function Attrs: mustprogress uwtable
define dso_local void @_ZN4Luau7CodeGen3X6418AssemblyBuilderX6411placeBinaryEPKcNS1_10OperandX64ES5_hhhhhhhh(ptr noundef nonnull align 8 dereferenceable(252) %0, ptr noundef %1, i64 %2, i64 %3, i8 noundef zeroext %4, i8 noundef zeroext %5, i8 noundef zeroext %6, i8 noundef zeroext %7, i8 noundef zeroext %8, i8 noundef zeroext %9, i8 noundef zeroext %10, i8 noundef zeroext %11) #0 align 2 {
  %13 = alloca %"struct.Luau::CodeGen::X64::OperandX64", align 4
  %14 = alloca %"struct.Luau::CodeGen::X64::OperandX64", align 4
  %15 = alloca ptr, align 8
  %16 = alloca ptr, align 8
  %17 = alloca i8, align 1
  %18 = alloca i8, align 1
  %19 = alloca i8, align 1
  %20 = alloca i8, align 1
  %21 = alloca i8, align 1
  %22 = alloca i8, align 1
  %23 = alloca i8, align 1
  %24 = alloca i8, align 1
  %25 = alloca %"struct.Luau::CodeGen::X64::OperandX64", align 4
  %26 = alloca %"struct.Luau::CodeGen::X64::OperandX64", align 4
  %27 = alloca %"struct.Luau::CodeGen::X64::OperandX64", align 4
  %28 = alloca %"struct.Luau::CodeGen::X64::OperandX64", align 4
  %29 = alloca %"struct.Luau::CodeGen::X64::OperandX64", align 4
  %30 = alloca %"struct.Luau::CodeGen::X64::OperandX64", align 4
  %31 = alloca %"struct.Luau::CodeGen::X64::OperandX64", align 4
  %32 = alloca %"struct.Luau::CodeGen::X64::OperandX64", align 4
  store i64 %2, ptr %13, align 4
  store i64 %3, ptr %14, align 4
  store ptr %0, ptr %15, align 8, !tbaa !4
  store ptr %1, ptr %16, align 8, !tbaa !80
  store i8 %4, ptr %17, align 1, !tbaa !79
  store i8 %5, ptr %18, align 1, !tbaa !79
  store i8 %6, ptr %19, align 1, !tbaa !79
  store i8 %7, ptr %20, align 1, !tbaa !79
  store i8 %8, ptr %21, align 1, !tbaa !79
  store i8 %9, ptr %22, align 1, !tbaa !79
  store i8 %10, ptr %23, align 1, !tbaa !79
  store i8 %11, ptr %24, align 1, !tbaa !79
  %33 = load ptr, ptr %15, align 8
  %34 = getelementptr inbounds nuw %"class.Luau::CodeGen::X64::AssemblyBuilderX64", ptr %33, i32 0, i32 3
  %35 = load i8, ptr %34, align 8, !tbaa !15, !range !13, !noundef !14
  %36 = trunc i8 %35 to i1
  br i1 %36, label %37, label %41

37:                                               ; preds = %12
  %38 = load ptr, ptr %16, align 8, !tbaa !80
  call void @llvm.memcpy.p0.p0.i64(ptr align 4 %25, ptr align 4 %13, i64 8, i1 false), !tbaa.struct !76
  call void @llvm.memcpy.p0.p0.i64(ptr align 4 %26, ptr align 4 %14, i64 8, i1 false), !tbaa.struct !76
  %39 = load i64, ptr %25, align 4
  %40 = load i64, ptr %26, align 4
  call void @_ZN4Luau7CodeGen3X6418AssemblyBuilderX643logEPKcNS1_10OperandX64ES5_(ptr noundef nonnull align 8 dereferenceable(252) %33, ptr noundef %38, i64 %39, i64 %40)
  br label %41

41:                                               ; preds = %37, %12
  %42 = getelementptr inbounds nuw %"struct.Luau::CodeGen::X64::OperandX64", ptr %13, i32 0, i32 0
  %43 = load i8, ptr %42, align 4, !tbaa !81
  %44 = icmp eq i8 %43, 0
  br i1 %44, label %49, label %45

45:                                               ; preds = %41
  %46 = getelementptr inbounds nuw %"struct.Luau::CodeGen::X64::OperandX64", ptr %13, i32 0, i32 0
  %47 = load i8, ptr %46, align 4, !tbaa !81
  %48 = icmp eq i8 %47, 1
  br i1 %48, label %49, label %60

49:                                               ; preds = %45, %41
  %50 = getelementptr inbounds nuw %"struct.Luau::CodeGen::X64::OperandX64", ptr %14, i32 0, i32 0
  %51 = load i8, ptr %50, align 4, !tbaa !81
  %52 = icmp eq i8 %51, 2
  br i1 %52, label %53, label %60

53:                                               ; preds = %49
  call void @llvm.memcpy.p0.p0.i64(ptr align 4 %27, ptr align 4 %13, i64 8, i1 false), !tbaa.struct !76
  call void @llvm.memcpy.p0.p0.i64(ptr align 4 %28, ptr align 4 %14, i64 8, i1 false), !tbaa.struct !76
  %54 = load i8, ptr %17, align 1, !tbaa !79
  %55 = load i8, ptr %18, align 1, !tbaa !79
  %56 = load i8, ptr %19, align 1, !tbaa !79
  %57 = load i8, ptr %24, align 1, !tbaa !79
  %58 = load i64, ptr %27, align 4
  %59 = load i64, ptr %28, align 4
  call void @_ZN4Luau7CodeGen3X6418AssemblyBuilderX6423placeBinaryRegMemAndImmENS1_10OperandX64ES3_hhhh(ptr noundef nonnull align 8 dereferenceable(252) %33, i64 %58, i64 %59, i8 noundef zeroext %54, i8 noundef zeroext %55, i8 noundef zeroext %56, i8 noundef zeroext %57)
  br label %93

60:                                               ; preds = %49, %45
  %61 = getelementptr inbounds nuw %"struct.Luau::CodeGen::X64::OperandX64", ptr %13, i32 0, i32 0
  %62 = load i8, ptr %61, align 4, !tbaa !81
  %63 = icmp eq i8 %62, 0
  br i1 %63, label %64, label %77

64:                                               ; preds = %60
  %65 = getelementptr inbounds nuw %"struct.Luau::CodeGen::X64::OperandX64", ptr %14, i32 0, i32 0
  %66 = load i8, ptr %65, align 4, !tbaa !81
  %67 = icmp eq i8 %66, 0
  br i1 %67, label %72, label %68

68:                                               ; preds = %64
  %69 = getelementptr inbounds nuw %"struct.Luau::CodeGen::X64::OperandX64", ptr %14, i32 0, i32 0
  %70 = load i8, ptr %69, align 4, !tbaa !81
  %71 = icmp eq i8 %70, 1
  br i1 %71, label %72, label %77

72:                                               ; preds = %68, %64
  call void @llvm.memcpy.p0.p0.i64(ptr align 4 %29, ptr align 4 %13, i64 8, i1 false), !tbaa.struct !76
  call void @llvm.memcpy.p0.p0.i64(ptr align 4 %30, ptr align 4 %14, i64 8, i1 false), !tbaa.struct !76
  %73 = load i8, ptr %22, align 1, !tbaa !79
  %74 = load i8, ptr %23, align 1, !tbaa !79
  %75 = load i64, ptr %29, align 4
  %76 = load i64, ptr %30, align 4
  call void @_ZN4Luau7CodeGen3X6418AssemblyBuilderX6423placeBinaryRegAndRegMemENS1_10OperandX64ES3_hh(ptr noundef nonnull align 8 dereferenceable(252) %33, i64 %75, i64 %76, i8 noundef zeroext %73, i8 noundef zeroext %74)
  br label %92

77:                                               ; preds = %68, %60
  %78 = getelementptr inbounds nuw %"struct.Luau::CodeGen::X64::OperandX64", ptr %13, i32 0, i32 0
  %79 = load i8, ptr %78, align 4, !tbaa !81
  %80 = icmp eq i8 %79, 1
  br i1 %80, label %81, label %90

81:                                               ; preds = %77
  %82 = getelementptr inbounds nuw %"struct.Luau::CodeGen::X64::OperandX64", ptr %14, i32 0, i32 0
  %83 = load i8, ptr %82, align 4, !tbaa !81
  %84 = icmp eq i8 %83, 0
  br i1 %84, label %85, label %90

85:                                               ; preds = %81
  call void @llvm.memcpy.p0.p0.i64(ptr align 4 %31, ptr align 4 %13, i64 8, i1 false), !tbaa.struct !76
  call void @llvm.memcpy.p0.p0.i64(ptr align 4 %32, ptr align 4 %14, i64 8, i1 false), !tbaa.struct !76
  %86 = load i8, ptr %20, align 1, !tbaa !79
  %87 = load i8, ptr %21, align 1, !tbaa !79
  %88 = load i64, ptr %31, align 4
  %89 = load i64, ptr %32, align 4
  call void @_ZN4Luau7CodeGen3X6418AssemblyBuilderX6423placeBinaryRegMemAndRegENS1_10OperandX64ES3_hh(ptr noundef nonnull align 8 dereferenceable(252) %33, i64 %88, i64 %89, i8 noundef zeroext %86, i8 noundef zeroext %87)
  br label %91

90:                                               ; preds = %81, %77
  br label %91

91:                                               ; preds = %90, %85
  br label %92

92:                                               ; preds = %91, %72
  br label %93

93:                                               ; preds = %92, %53
  ret void
}

; Function Attrs: mustprogress uwtable
define dso_local void @_ZN4Luau7CodeGen3X6418AssemblyBuilderX643or_ENS1_10OperandX64ES3_(ptr noundef nonnull align 8 dereferenceable(252) %0, i64 %1, i64 %2) #0 align 2 {
  %4 = alloca %"struct.Luau::CodeGen::X64::OperandX64", align 4
  %5 = alloca %"struct.Luau::CodeGen::X64::OperandX64", align 4
  %6 = alloca ptr, align 8
  %7 = alloca %"struct.Luau::CodeGen::X64::OperandX64", align 4
  %8 = alloca %"struct.Luau::CodeGen::X64::OperandX64", align 4
  store i64 %1, ptr %4, align 4
  store i64 %2, ptr %5, align 4
  store ptr %0, ptr %6, align 8, !tbaa !4
  %9 = load ptr, ptr %6, align 8
  call void @llvm.memcpy.p0.p0.i64(ptr align 4 %7, ptr align 4 %4, i64 8, i1 false), !tbaa.struct !76
  call void @llvm.memcpy.p0.p0.i64(ptr align 4 %8, ptr align 4 %5, i64 8, i1 false), !tbaa.struct !76
  %10 = load i64, ptr %7, align 4
  %11 = load i64, ptr %8, align 4
  call void @_ZN4Luau7CodeGen3X6418AssemblyBuilderX6411placeBinaryEPKcNS1_10OperandX64ES5_hhhhhhhh(ptr noundef nonnull align 8 dereferenceable(252) %9, ptr noundef @.str.4, i64 %10, i64 %11, i8 noundef zeroext -128, i8 noundef zeroext -127, i8 noundef zeroext -125, i8 noundef zeroext 8, i8 noundef zeroext 9, i8 noundef zeroext 10, i8 noundef zeroext 11, i8 noundef zeroext 1)
  ret void
}